; Function Attrs: mustprogress uwtable
define noundef range(i32 -1, 1) i32 @_ZN3zmq14session_base_t8push_msgEPNS_5msg_tE(ptr noundef nonnull readonly align 8 captures(none) dereferenceable(1624) %0, ptr noundef nonnull %1) unnamed_addr #0 align 2 {
  %3 = tail call noundef zeroext i8 @_ZNK3zmq5msg_t5flagsEv(ptr noundef nonnull align 8 dereferenceable(64) %1)
  %4 = and i8 %3, 2
  %.not = icmp eq i8 %4, 0
  br i1 %.not, label %9, label %5

5:                                                ; preds = %2
  %6 = getelementptr inbounds nuw i8, ptr %1, i64 43
  %7 = load i8, ptr %6, align 1, !tbaa !100
  %8 = and i8 %7, 28
  switch i8 %8, label %26 [
    i8 12, label %9
    i8 16, label %9
  ]

9:                                                ; preds = %5, %5, %2
  %10 = getelementptr inbounds nuw i8, ptr %0, i64 1480
  %11 = load ptr, ptr %10, align 8, !tbaa !101
  %.not10 = icmp eq ptr %11, null
  br i1 %.not10, label %24, label %12

12:                                               ; preds = %9
  %13 = tail call noundef zeroext i1 @_ZN3zmq6pipe_t5writeEPKNS_5msg_tE(ptr noundef nonnull align 8 dereferenceable(328) %11, ptr noundef nonnull %1)
  br i1 %13, label %14, label %24

14:                                               ; preds = %12
  %15 = tail call noundef i32 @_ZN3zmq5msg_t4initEv(ptr noundef nonnull align 8 dereferenceable(64) %1)
  %.not11 = icmp eq i32 %15, 0
  br i1 %.not11, label %26, label %16, !prof !102

16:                                               ; preds = %14
  %17 = tail call ptr @__errno_location() #26
  %18 = load i32, ptr %17, align 4, !tbaa !51
  %19 = tail call ptr @strerror(i32 noundef %18) #29
  %20 = load ptr, ptr @stderr, align 8, !tbaa !52
  %21 = tail call i32 (ptr, ptr, ...) @fprintf(ptr noundef %20, ptr noundef nonnull @.str.8, ptr noundef %19, ptr noundef nonnull @.str.1, i32 noundef 164) #27
  %22 = load ptr, ptr @stderr, align 8, !tbaa !52
  %23 = tail call i32 @fflush(ptr noundef %22)
  tail call void @_ZN3zmq9zmq_abortEPKc(ptr noundef %19)
  br label %26

24:                                               ; preds = %12, %9
  %25 = tail call ptr @__errno_location() #26
  store i32 11, ptr %25, align 4, !tbaa !51
  br label %26

26:                                               ; preds = %5, %14, %16, %24
  %.0 = phi i32 [ -1, %24 ], [ 0, %16 ], [ 0, %14 ], [ 0, %5 ]
  ret i32 %.0
}